target datalayout = "e-m:e-p270:32:32-p271:32:32-p272:64:64-i64:64-i128:128-f80:128-n8:16:32:64-S128"
target triple = "x86_64-pc-linux-gnu"

; Function Attrs: mustprogress nounwind uwtable
define void @_ZN10OpenSubdiv6v3_6_03Far8internal11FeatureMask18InitializeFeaturesERKNS1_15TopologyRefiner15AdaptiveOptionsEi(ptr noundef nonnull align 4 dereferenceable(2) %0, ptr noundef nonnull align 4 dereferenceable(2) %1, i32 noundef %2) #3 align 2 {
  %4 = alloca ptr, align 8
  %5 = alloca ptr, align 8
  %6 = alloca i32, align 4
  %7 = alloca i8, align 1
  store ptr %0, ptr %4, align 8
  store ptr %1, ptr %5, align 8
  store i32 %2, ptr %6, align 4
  %8 = load ptr, ptr %4, align 8
  %9 = load ptr, ptr %5, align 8
  %10 = load i16, ptr %9, align 4
  %11 = lshr i16 %10, 8
  %12 = and i16 %11, 1
  %13 = zext i16 %12 to i32
  %14 = icmp ne i32 %13, 0
  br i1 %14, label %15, label %18

15:                                               ; preds = %3
  %16 = load i32, ptr %6, align 4
  %17 = icmp eq i32 %16, 4
  br label %18

18:                                               ; preds = %15, %3
  %19 = phi i1 [ false, %3 ], [ %17, %15 ]
  %20 = zext i1 %19 to i8
  store i8 %20, ptr %7, align 1
  %21 = load i16, ptr %8, align 4
  %22 = and i16 %21, -2
  %23 = or i16 %22, 1
  store i16 %23, ptr %8, align 4
  %24 = load i16, ptr %8, align 4
  %25 = and i16 %24, -3
  %26 = or i16 %25, 2
  store i16 %26, ptr %8, align 4
  %27 = load i8, ptr %7, align 1
  %28 = trunc i8 %27 to i1
  %29 = xor i1 %28, true
  %30 = zext i1 %29 to i32
  %31 = trunc i32 %30 to i16
  %32 = load i16, ptr %8, align 4
  %33 = and i16 %31, 1
  %34 = shl i16 %33, 2
  %35 = and i16 %32, -5
  %36 = or i16 %35, %34
  store i16 %36, ptr %8, align 4
  %37 = load i16, ptr %8, align 4
  %38 = and i16 %37, -9
  %39 = or i16 %38, 8
  store i16 %39, ptr %8, align 4
  %40 = load ptr, ptr %5, align 8
  %41 = load i16, ptr %40, align 4
  %42 = lshr i16 %41, 9
  %43 = and i16 %42, 1
  %44 = zext i16 %43 to i32
  %45 = icmp ne i32 %44, 0
  br i1 %45, label %49, label %46

46:                                               ; preds = %18
  %47 = load i8, ptr %7, align 1
  %48 = trunc i8 %47 to i1
  br label %49

49:                                               ; preds = %46, %18
  %50 = phi i1 [ true, %18 ], [ %48, %46 ]
  %51 = xor i1 %50, true
  %52 = zext i1 %51 to i32
  %53 = trunc i32 %52 to i16
  %54 = load i16, ptr %8, align 4
  %55 = and i16 %53, 1
  %56 = shl i16 %55, 4
  %57 = and i16 %54, -17
  %58 = or i16 %57, %56
  store i16 %58, ptr %8, align 4
  %59 = load ptr, ptr %5, align 8
  %60 = load i16, ptr %59, align 4
  %61 = lshr i16 %60, 9
  %62 = and i16 %61, 1
  %63 = zext i16 %62 to i32
  %64 = icmp ne i32 %63, 0
  %65 = xor i1 %64, true
  %66 = zext i1 %65 to i32
  %67 = trunc i32 %66 to i16
  %68 = load i16, ptr %8, align 4
  %69 = and i16 %67, 1
  %70 = shl i16 %69, 5
  %71 = and i16 %68, -33
  %72 = or i16 %71, %70
  store i16 %72, ptr %8, align 4
  %73 = load i16, ptr %8, align 4
  %74 = and i16 %73, -65
  %75 = or i16 %74, 64
  store i16 %75, ptr %8, align 4
  %76 = load i16, ptr %8, align 4
  %77 = and i16 %76, -129
  %78 = or i16 %77, 128
  store i16 %78, ptr %8, align 4
  %79 = load i16, ptr %8, align 4
  %80 = and i16 %79, -257
  %81 = or i16 %80, 256
  store i16 %81, ptr %8, align 4
  %82 = load i8, ptr %7, align 1
  %83 = trunc i8 %82 to i1
  br i1 %83, label %84, label %92

84:                                               ; preds = %49
  %85 = load ptr, ptr %5, align 8
  %86 = load i16, ptr %85, align 4
  %87 = lshr i16 %86, 9
  %88 = and i16 %87, 1
  %89 = zext i16 %88 to i32
  %90 = icmp ne i32 %89, 0
  %91 = xor i1 %90, true
  br label %92

92:                                               ; preds = %84, %49
  %93 = phi i1 [ false, %49 ], [ %91, %84 ]
  %94 = zext i1 %93 to i32
  %95 = trunc i32 %94 to i16
  %96 = load i16, ptr %8, align 4
  %97 = and i16 %95, 1
  %98 = shl i16 %97, 9
  %99 = and i16 %96, -513
  %100 = or i16 %99, %98
  store i16 %100, ptr %8, align 4
  %101 = load i16, ptr %8, align 4
  %102 = and i16 %101, -1025
  %103 = or i16 %102, 1024
  store i16 %103, ptr %8, align 4
  %104 = load ptr, ptr %5, align 8
  %105 = load i16, ptr %104, align 4
  %106 = lshr i16 %105, 10
  %107 = and i16 %106, 1
  %108 = zext i16 %107 to i32
  %109 = trunc i32 %108 to i16
  %110 = load i16, ptr %8, align 4
  %111 = and i16 %109, 1
  %112 = shl i16 %111, 11
  %113 = and i16 %110, -2049
  %114 = or i16 %113, %112
  store i16 %114, ptr %8, align 4
  ret void
}