; Function Attrs: mustprogress nofree norecurse nosync nounwind willreturn memory(argmem: readwrite) uwtable
define void @_ZN10OpenSubdiv6v3_6_03Far8internal11FeatureMask18InitializeFeaturesERKNS1_15TopologyRefiner15AdaptiveOptionsEi(ptr nocapture noundef nonnull align 4 dereferenceable(2) %0, ptr nocapture noundef nonnull readonly align 4 dereferenceable(2) %1, i32 noundef %2) local_unnamed_addr #9 align 2 {
  %4 = load i16, ptr %1, align 4
  %5 = and i16 %4, 256
  %6 = icmp eq i16 %5, 0
  %7 = icmp ne i32 %2, 4
  %.not12 = or i1 %7, %6
  %8 = load i16, ptr %0, align 4
  %9 = select i1 %.not12, i16 4, i16 0
  %10 = and i16 %8, -16
  %11 = or disjoint i16 %10, %9
  %12 = or disjoint i16 %11, 11
  store i16 %12, ptr %0, align 4
  %13 = load i16, ptr %1, align 4
  %14 = and i16 %13, 512
  %15 = icmp eq i16 %14, 0
  %.not10 = select i1 %15, i1 %.not12, i1 false
  %16 = select i1 %.not10, i16 16, i16 0
  %17 = and i16 %12, -17
  %18 = or disjoint i16 %16, %17
  store i16 %18, ptr %0, align 4
  %19 = load i16, ptr %1, align 4
  %20 = lshr i16 %19, 4
  %21 = and i16 %20, 32
  %22 = and i16 %18, -481
  %23 = or disjoint i16 %22, %21
  %24 = xor i16 %23, 480
  store i16 %24, ptr %0, align 4
  %25 = load i16, ptr %1, align 4
  %.lobit = and i16 %25, 512
  %26 = xor i16 %.lobit, 1536
  %27 = and i16 %24, -1537
  %28 = select i1 %.not12, i16 1024, i16 %26
  %29 = or disjoint i16 %28, %27
  store i16 %29, ptr %0, align 4
  %30 = load i16, ptr %1, align 4
  %31 = shl i16 %30, 1
  %32 = and i16 %31, 2048
  %33 = and i16 %29, -2049
  %34 = or disjoint i16 %33, %32
  store i16 %34, ptr %0, align 4
  ret void
}